; Function Attrs: nounwind uwtable
define noalias nonnull ptr @l_Lean_IR_ExplicitBoxing_getEnv___boxed(ptr noundef %0, ptr noundef %1) local_unnamed_addr #0 {
  %3 = getelementptr inbounds nuw i8, ptr %0, i64 40
  %4 = load ptr, ptr %3, align 8, !tbaa !4
  %5 = ptrtoint ptr %4 to i64
  %6 = and i64 %5, 1
  %.not.i4 = icmp eq i64 %6, 0
  br i1 %.not.i4, label %7, label %lean_inc.exit.i

7:                                                ; preds = %2
  %.val.i.i = load i32, ptr %4, align 4, !tbaa !10
  %8 = icmp sgt i32 %.val.i.i, 0
  br i1 %8, label %9, label %11, !prof !13

9:                                                ; preds = %7
  %10 = add nuw i32 %.val.i.i, 1
  store i32 %10, ptr %4, align 4, !tbaa !10
  br label %lean_inc.exit.i

11:                                               ; preds = %7
  %.not.i.i = icmp eq i32 %.val.i.i, 0
  br i1 %.not.i.i, label %lean_inc.exit.i, label %12

12:                                               ; preds = %11
  tail call void @lean_inc_ref_cold(ptr noundef nonnull %4) #6
  br label %lean_inc.exit.i

lean_inc.exit.i:                                  ; preds = %12, %11, %9, %2
  tail call void @lean_inc_heartbeat() #6
  %13 = tail call noalias ptr @mi_malloc_small(i64 noundef 24) #6
  %14 = icmp eq ptr %13, null
  br i1 %14, label %15, label %l_Lean_IR_ExplicitBoxing_getEnv.exit

15:                                               ; preds = %lean_inc.exit.i
  tail call void @lean_internal_panic_out_of_memory() #7
  unreachable

l_Lean_IR_ExplicitBoxing_getEnv.exit:             ; preds = %lean_inc.exit.i
  %16 = getelementptr inbounds nuw i8, ptr %13, i64 4
  store i32 1, ptr %13, align 4, !tbaa !10
  store i32 131096, ptr %16, align 4
  %17 = getelementptr inbounds nuw i8, ptr %13, i64 8
  store ptr %4, ptr %17, align 8, !tbaa !4
  %18 = getelementptr inbounds nuw i8, ptr %13, i64 16
  store ptr %1, ptr %18, align 8, !tbaa !4
  %19 = ptrtoint ptr %0 to i64
  %20 = and i64 %19, 1
  %.not = icmp eq i64 %20, 0
  br i1 %.not, label %21, label %lean_dec.exit

21:                                               ; preds = %l_Lean_IR_ExplicitBoxing_getEnv.exit
  %22 = load i32, ptr %0, align 4, !tbaa !10
  %23 = icmp sgt i32 %22, 1
  br i1 %23, label %24, label %26, !prof !13

24:                                               ; preds = %21
  %25 = add nsw i32 %22, -1
  store i32 %25, ptr %0, align 4, !tbaa !10
  br label %lean_dec.exit

26:                                               ; preds = %21
  %.not.i = icmp eq i32 %22, 0
  br i1 %.not.i, label %lean_dec.exit, label %27

27:                                               ; preds = %26
  tail call void @lean_dec_ref_cold(ptr noundef nonnull %0) #6
  br label %lean_dec.exit

lean_dec.exit:                                    ; preds = %27, %26, %24, %l_Lean_IR_ExplicitBoxing_getEnv.exit
  ret ptr %13
}